target datalayout = "e-m:e-p270:32:32-p271:32:32-p272:64:64-i64:64-i128:128-f80:128-n8:16:32:64-S128"
target triple = "x86_64-pc-linux-gnu"

%struct.xcgroup_ns_t = type { ptr, ptr, ptr, ptr }
%struct.xcgroup_t = type { ptr, ptr, ptr, i32, i32, i32 }

@g_cg_name = dso_local global [5 x ptr] [ptr @.str, ptr @.str.1, ptr @.str.2, ptr @.str.3, ptr @.str.4], align 16
@g_cg_ns = internal global [5 x %struct.xcgroup_ns_t] zeroinitializer, align 16
@int_cg = internal global [5 x [9 x %struct.xcgroup_t]] zeroinitializer, align 16
@.str.7 = private unnamed_addr constant [21 x i8] c"memory.use_hierarchy\00", align 1
@.str.8 = private unnamed_addr constant [2 x i8] c"1\00", align 1
@.str.9 = private unnamed_addr constant [34 x i8] c"cgroup subsystem %u not supported\00", align 1
@.str.82 = private unnamed_addr constant [1 x i8] zeroinitializer, align 1
@.str.83 = private unnamed_addr constant [37 x i8] c"unable to create %s cgroup namespace\00", align 1
@.str.84 = private unnamed_addr constant [33 x i8] c"unable to create root %s xcgroup\00", align 1
@.str.85 = private unnamed_addr constant [34 x i8] c"unable to create slurm %s xcgroup\00", align 1

; Function Attrs: nounwind uwtable
define internal i32 @_cgroup_init(i32 noundef %0) #0 {
  %2 = alloca i32, align 4
  %3 = alloca i32, align 4
  store i32 %0, ptr %3, align 4
  %4 = load i32, ptr %3, align 4
  %5 = icmp uge i32 %4, 5
  br i1 %5, label %6, label %7

6:                                                ; preds = %1
  store i32 -1, ptr %2, align 4
  br label %62

7:                                                ; preds = %1
  %8 = load i32, ptr %3, align 4
  %9 = zext i32 %8 to i64
  %10 = getelementptr inbounds nuw [5 x %struct.xcgroup_ns_t], ptr @g_cg_ns, i64 0, i64 %9
  %11 = load i32, ptr %3, align 4
  %12 = zext i32 %11 to i64
  %13 = getelementptr inbounds nuw [5 x ptr], ptr @g_cg_name, i64 0, i64 %12
  %14 = load ptr, ptr %13, align 8
  %15 = call i32 @xcgroup_ns_create(ptr noundef %10, ptr noundef @.str.82, ptr noundef %14)
  %16 = icmp ne i32 %15, 0
  br i1 %16, label %17, label %23

17:                                               ; preds = %7
  %18 = load i32, ptr %3, align 4
  %19 = zext i32 %18 to i64
  %20 = getelementptr inbounds nuw [5 x ptr], ptr @g_cg_name, i64 0, i64 %19
  %21 = load ptr, ptr %20, align 8
  %22 = call i32 (ptr, ...) @error(ptr noundef @.str.83, ptr noundef %21)
  store i32 -1, ptr %2, align 4
  br label %62

23:                                               ; preds = %7
  %24 = load i32, ptr %3, align 4
  %25 = zext i32 %24 to i64
  %26 = getelementptr inbounds nuw [5 x %struct.xcgroup_ns_t], ptr @g_cg_ns, i64 0, i64 %25
  %27 = load i32, ptr %3, align 4
  %28 = zext i32 %27 to i64
  %29 = getelementptr inbounds nuw [5 x [9 x %struct.xcgroup_t]], ptr @int_cg, i64 0, i64 %28
  %30 = getelementptr inbounds [9 x %struct.xcgroup_t], ptr %29, i64 0, i64 0
  %31 = call i32 @common_cgroup_create(ptr noundef %26, ptr noundef %30, ptr noundef @.str.82, i32 noundef 0, i32 noundef 0)
  %32 = icmp ne i32 %31, 0
  br i1 %32, label %33, label %42

33:                                               ; preds = %23
  %34 = load i32, ptr %3, align 4
  %35 = zext i32 %34 to i64
  %36 = getelementptr inbounds nuw [5 x ptr], ptr @g_cg_name, i64 0, i64 %35
  %37 = load ptr, ptr %36, align 8
  %38 = call i32 (ptr, ...) @error(ptr noundef @.str.84, ptr noundef %37)
  %39 = load i32, ptr %3, align 4
  %40 = zext i32 %39 to i64
  %41 = getelementptr inbounds nuw [5 x %struct.xcgroup_ns_t], ptr @g_cg_ns, i64 0, i64 %40
  call void @common_cgroup_ns_destroy(ptr noundef %41)
  store i32 -1, ptr %2, align 4
  br label %62

42:                                               ; preds = %23
  %43 = load i32, ptr %3, align 4
  %44 = zext i32 %43 to i64
  %45 = getelementptr inbounds nuw [5 x %struct.xcgroup_ns_t], ptr @g_cg_ns, i64 0, i64 %44
  %46 = load i32, ptr %3, align 4
  %47 = zext i32 %46 to i64
  %48 = getelementptr inbounds nuw [5 x [9 x %struct.xcgroup_t]], ptr @int_cg, i64 0, i64 %47
  %49 = getelementptr inbounds [9 x %struct.xcgroup_t], ptr %48, i64 0, i64 1
  %50 = call i32 @xcgroup_create_slurm_cg(ptr noundef %45, ptr noundef %49)
  %51 = icmp ne i32 %50, 0
  br i1 %51, label %52, label %61

52:                                               ; preds = %42
  %53 = load i32, ptr %3, align 4
  %54 = zext i32 %53 to i64
  %55 = getelementptr inbounds nuw [5 x ptr], ptr @g_cg_name, i64 0, i64 %54
  %56 = load ptr, ptr %55, align 8
  %57 = call i32 (ptr, ...) @error(ptr noundef @.str.85, ptr noundef %56)
  %58 = load i32, ptr %3, align 4
  %59 = zext i32 %58 to i64
  %60 = getelementptr inbounds nuw [5 x %struct.xcgroup_ns_t], ptr @g_cg_ns, i64 0, i64 %59
  call void @common_cgroup_ns_destroy(ptr noundef %60)
  store i32 -1, ptr %2, align 4
  br label %62

61:                                               ; preds = %42
  store i32 0, ptr %2, align 4
  br label %62

62:                                               ; preds = %61, %52, %33, %17, %6
  %63 = load i32, ptr %2, align 4
  ret i32 %63
}

; Function Attrs: nounwind uwtable
define dso_local i32 @cgroup_p_initialize(i32 noundef %0) #0 {
  %2 = alloca i32, align 4
  %3 = alloca i32, align 4
  %4 = alloca i32, align 4
  %5 = alloca i32, align 4
  store i32 %0, ptr %3, align 4
  call void @llvm.lifetime.start.p0(i64 4, ptr %4) #7
  store i32 0, ptr %4, align 4
  %6 = load i32, ptr %3, align 4
  %7 = zext i32 %6 to i64
  %8 = getelementptr inbounds nuw [5 x %struct.xcgroup_ns_t], ptr @g_cg_ns, i64 0, i64 %7
  %9 = getelementptr inbounds nuw %struct.xcgroup_ns_t, ptr %8, i32 0, i32 1
  %10 = load ptr, ptr %9, align 8
  %11 = icmp ne ptr %10, null
  br i1 %11, label %12, label %14

12:                                               ; preds = %1
  %13 = load i32, ptr %4, align 4
  store i32 %13, ptr %2, align 4
  store i32 1, ptr %5, align 4
  br label %35

14:                                               ; preds = %1
  %15 = load i32, ptr %3, align 4
  %16 = call i32 @_cgroup_init(i32 noundef %15)
  store i32 %16, ptr %4, align 4
  %17 = icmp ne i32 %16, 0
  br i1 %17, label %18, label %20

18:                                               ; preds = %14
  %19 = load i32, ptr %4, align 4
  store i32 %19, ptr %2, align 4
  store i32 1, ptr %5, align 4
  br label %35

20:                                               ; preds = %14
  %21 = load i32, ptr %3, align 4
  switch i32 %21, label %30 [
    i32 0, label %22
    i32 1, label %22
    i32 2, label %23
    i32 3, label %29
    i32 4, label %29
  ]

22:                                               ; preds = %20, %20
  br label %33

23:                                               ; preds = %20
  %24 = load i32, ptr %3, align 4
  %25 = zext i32 %24 to i64
  %26 = getelementptr inbounds nuw [5 x [9 x %struct.xcgroup_t]], ptr @int_cg, i64 0, i64 %25
  %27 = getelementptr inbounds [9 x %struct.xcgroup_t], ptr %26, i64 0, i64 0
  %28 = call i32 @common_cgroup_set_param(ptr noundef %27, ptr noundef @.str.7, ptr noundef @.str.8)
  br label %33

29:                                               ; preds = %20, %20
  br label %33

30:                                               ; preds = %20
  %31 = load i32, ptr %3, align 4
  %32 = call i32 (ptr, ...) @error(ptr noundef @.str.9, i32 noundef %31)
  store i32 -1, ptr %4, align 4
  br label %33

33:                                               ; preds = %30, %29, %23, %22
  %34 = load i32, ptr %4, align 4
  store i32 %34, ptr %2, align 4
  store i32 1, ptr %5, align 4
  br label %35

35:                                               ; preds = %33, %18, %12
  call void @llvm.lifetime.end.p0(i64 4, ptr %4) #7
  %36 = load i32, ptr %2, align 4
  ret i32 %36
}