; Function Attrs: nounwind uwtable
define dso_local range(i32 -1, 1) i32 @cgroup_p_initialize(i32 noundef %0) local_unnamed_addr #0 {
  %2 = zext i32 %0 to i64
  %3 = getelementptr inbounds nuw [5 x %struct.xcgroup_ns_t], ptr @g_cg_ns, i64 0, i64 %2, i32 1
  %4 = load ptr, ptr %3, align 8
  %.not = icmp eq ptr %4, null
  br i1 %.not, label %5, label %_cgroup_init.exit.thread

5:                                                ; preds = %1
  %6 = icmp ugt i32 %0, 4
  br i1 %6, label %_cgroup_init.exit.thread, label %7

7:                                                ; preds = %5
  %8 = getelementptr inbounds nuw [5 x %struct.xcgroup_ns_t], ptr @g_cg_ns, i64 0, i64 %2
  %9 = getelementptr inbounds nuw [5 x ptr], ptr @g_cg_name, i64 0, i64 %2
  %10 = load ptr, ptr %9, align 8
  %11 = tail call i32 @xcgroup_ns_create(ptr noundef nonnull %8, ptr noundef nonnull @.str.82, ptr noundef %10) #11
  %.not.i = icmp eq i32 %11, 0
  br i1 %.not.i, label %15, label %12

12:                                               ; preds = %7
  %13 = load ptr, ptr %9, align 8
  %14 = tail call i32 (ptr, ...) @error(ptr noundef nonnull @.str.83, ptr noundef %13) #11
  br label %_cgroup_init.exit.thread

15:                                               ; preds = %7
  %16 = getelementptr inbounds nuw [5 x [9 x %struct.xcgroup_t]], ptr @int_cg, i64 0, i64 %2
  %17 = tail call i32 @common_cgroup_create(ptr noundef nonnull %8, ptr noundef nonnull %16, ptr noundef nonnull @.str.82, i32 noundef 0, i32 noundef 0) #11
  %.not14.i = icmp eq i32 %17, 0
  br i1 %.not14.i, label %21, label %18

18:                                               ; preds = %15
  %19 = load ptr, ptr %9, align 8
  %20 = tail call i32 (ptr, ...) @error(ptr noundef nonnull @.str.84, ptr noundef %19) #11
  tail call void @common_cgroup_ns_destroy(ptr noundef nonnull %8) #11
  br label %_cgroup_init.exit.thread

21:                                               ; preds = %15
  %22 = getelementptr inbounds nuw i8, ptr %16, i64 40
  %23 = tail call i32 @xcgroup_create_slurm_cg(ptr noundef nonnull %8, ptr noundef nonnull %22) #11
  %.not15.i = icmp eq i32 %23, 0
  br i1 %.not15.i, label %_cgroup_init.exit, label %24

24:                                               ; preds = %21
  %25 = load ptr, ptr %9, align 8
  %26 = tail call i32 (ptr, ...) @error(ptr noundef nonnull @.str.85, ptr noundef %25) #11
  tail call void @common_cgroup_ns_destroy(ptr noundef nonnull %8) #11
  br label %_cgroup_init.exit.thread

_cgroup_init.exit:                                ; preds = %21
  %switch = icmp eq i32 %0, 2
  br i1 %switch, label %27, label %_cgroup_init.exit.thread

27:                                               ; preds = %_cgroup_init.exit
  %28 = tail call i32 @common_cgroup_set_param(ptr noundef nonnull %16, ptr noundef nonnull @.str.7, ptr noundef nonnull @.str.8) #11
  br label %_cgroup_init.exit.thread

_cgroup_init.exit.thread:                         ; preds = %_cgroup_init.exit, %5, %24, %18, %12, %27, %1
  %.09 = phi i32 [ 0, %1 ], [ 0, %27 ], [ 0, %_cgroup_init.exit ], [ -1, %12 ], [ -1, %18 ], [ -1, %24 ], [ -1, %5 ]
  ret i32 %.09
}